; Function Attrs: nounwind uwtable
define internal fastcc range(i32 -1, -2147483648) i32 @H5VL__attr_write(ptr noundef %0, ptr noundef readonly captures(none) %1, i64 noundef %2, ptr noundef %3, i64 noundef %4, ptr noundef %5) unnamed_addr #0 {
  %7 = alloca %struct.H5_user_cb_state_t, align 8
  %8 = load i8, ptr @H5VL_init_g, align 1, !tbaa !33, !range !35, !noundef !36
  %9 = trunc nuw i8 %8 to i1
  %10 = load i8, ptr @H5_libterm_g, align 1, !range !35
  %11 = trunc nuw i8 %10 to i1
  %12 = xor i1 %11, true
  %13 = select i1 %9, i1 true, i1 %12
  br i1 %13, label %14, label %39, !prof !37

14:                                               ; preds = %6
  %15 = getelementptr inbounds nuw i8, ptr %1, i64 160
  %16 = load ptr, ptr %15, align 8, !tbaa !61
  %17 = icmp eq ptr %16, null
  br i1 %17, label %18, label %22

18:                                               ; preds = %14
  %19 = load i64, ptr @H5E_VOL_g, align 8, !tbaa !3
  %20 = load i64, ptr @H5E_UNSUPPORTED_g, align 8, !tbaa !3
  %21 = tail call i32 (ptr, ptr, i32, i64, i64, ptr, ...) @H5E_printf_stack(ptr noundef nonnull @.str, ptr noundef nonnull @__func__.H5VL__attr_write, i32 noundef 1365, i64 noundef %19, i64 noundef %20, ptr noundef nonnull @.str.175) #7
  br label %39

22:                                               ; preds = %14
  call void @llvm.lifetime.start.p0(i64 24, ptr nonnull %7) #7
  %23 = call i32 @H5_user_cb_prepare(ptr noundef nonnull %7) #7
  %24 = icmp slt i32 %23, 0
  br i1 %24, label %.thread, label %25

25:                                               ; preds = %22
  %26 = load ptr, ptr %15, align 8, !tbaa !61
  %27 = call i32 %26(ptr noundef %0, i64 noundef %2, ptr noundef %3, i64 noundef %4, ptr noundef %5) #7
  %28 = call i32 @H5_user_cb_restore(ptr noundef nonnull %7) #7
  %29 = icmp slt i32 %28, 0
  br i1 %29, label %.thread, label %33

.thread:                                          ; preds = %25, %22
  %H5E_CANTSET_g.sink = phi ptr [ @H5E_CANTSET_g, %22 ], [ @H5E_CANTRESTORE_g, %25 ]
  %.sink = phi i32 [ 1368, %22 ], [ 1373, %25 ]
  %30 = load i64, ptr @H5E_LIB_g, align 8, !tbaa !3
  %31 = load i64, ptr %H5E_CANTSET_g.sink, align 8, !tbaa !3
  %32 = call i32 (ptr, ptr, i32, i64, i64, ptr, ...) @H5E_printf_stack(ptr noundef nonnull @.str, ptr noundef nonnull @__func__.H5VL__attr_write, i32 noundef %.sink, i64 noundef %30, i64 noundef %31, ptr noundef nonnull @.str.2) #7
  call void @llvm.lifetime.end.p0(i64 24, ptr nonnull %7) #7
  br label %39

33:                                               ; preds = %25
  call void @llvm.lifetime.end.p0(i64 24, ptr nonnull %7) #7
  %34 = icmp slt i32 %27, 0
  br i1 %34, label %35, label %39

35:                                               ; preds = %33
  %36 = load i64, ptr @H5E_VOL_g, align 8, !tbaa !3
  %37 = load i64, ptr @H5E_WRITEERROR_g, align 8, !tbaa !3
  %38 = call i32 (ptr, ptr, i32, i64, i64, ptr, ...) @H5E_printf_stack(ptr noundef nonnull @.str, ptr noundef nonnull @__func__.H5VL__attr_write, i32 noundef 1375, i64 noundef %36, i64 noundef %37, ptr noundef nonnull @.str.32) #7
  br label %39

39:                                               ; preds = %.thread, %33, %6, %35, %18
  %.015 = phi i32 [ -1, %18 ], [ %27, %33 ], [ -1, %35 ], [ 0, %6 ], [ -1, %.thread ]
  ret i32 %.015
}